; Function Attrs: mustprogress nounwind uwtable
define internal void @_ZNK12_GLOBAL__N_118ObjectByrefHelpers11profileImplERN4llvm16FoldingSetNodeIDE(ptr nocapture noundef nonnull readonly align 8 dereferenceable(48) %0, ptr noundef nonnull align 8 dereferenceable(144) %1) unnamed_addr #0 align 2 {
  %3 = getelementptr inbounds nuw i8, ptr %0, i64 40
  %4 = load i32, ptr %3, align 8
  %5 = tail call noundef i64 @_ZNK4llvm15SmallVectorBaseIjE4sizeEv(ptr noundef nonnull align 8 dereferenceable(16) %1) #24
  %6 = add i64 %5, 1
  %7 = tail call noundef i64 @_ZNK4llvm15SmallVectorBaseIjE8capacityEv(ptr noundef nonnull align 8 dereferenceable(16) %1) #24
  %.not.i.i.i.i = icmp ugt i64 %6, %7
  br i1 %.not.i.i.i.i, label %8, label %_ZN4llvm16FoldingSetNodeID10AddIntegerEj.exit

8:                                                ; preds = %2
  %9 = getelementptr inbounds i8, ptr %1, i64 16
  tail call void @_ZN4llvm15SmallVectorBaseIjE8grow_podEPvmm(ptr noundef nonnull align 8 dereferenceable(16) %1, ptr noundef nonnull %9, i64 noundef %6, i64 noundef 4) #24
  br label %_ZN4llvm16FoldingSetNodeID10AddIntegerEj.exit

_ZN4llvm16FoldingSetNodeID10AddIntegerEj.exit:    ; preds = %2, %8
  %10 = load ptr, ptr %1, align 8
  %11 = tail call noundef i64 @_ZNK4llvm15SmallVectorBaseIjE4sizeEv(ptr noundef nonnull align 8 dereferenceable(16) %1) #24
  %12 = getelementptr inbounds i32, ptr %10, i64 %11
  store i32 %4, ptr %12, align 1
  %13 = tail call noundef i64 @_ZNK4llvm15SmallVectorBaseIjE4sizeEv(ptr noundef nonnull align 8 dereferenceable(16) %1) #24
  %14 = add i64 %13, 1
  tail call void @_ZN4llvm15SmallVectorBaseIjE8set_sizeEm(ptr noundef nonnull align 8 dereferenceable(16) %1, i64 noundef %14) #24
  ret void
}